; Function Attrs: nofree norecurse nosync nounwind memory(argmem: read) uwtable
define range(i32 0, 8) i32 @lv_switch_get_orientation(ptr noundef readonly captures(address_is_null) %0) local_unnamed_addr #3 {
  %.not = icmp eq ptr %0, null
  br i1 %.not, label %.preheader, label %2

.preheader:                                       ; preds = %1, %.preheader
  br label %.preheader

2:                                                ; preds = %1
  %3 = getelementptr inbounds nuw i8, ptr %0, i64 68
  %4 = load i8, ptr %3, align 4
  %5 = and i8 %4, 7
  %6 = zext nneg i8 %5 to i32
  ret i32 %6
}